target datalayout = "e-m:e-p270:32:32-p271:32:32-p272:64:64-i64:64-i128:128-f80:128-n8:16:32:64-S128"
target triple = "x86_64-pc-linux-gnu"

%struct.H5L_trav_gnbi_t = type { i32, i32, i64, i64, ptr, i64 }

@.str = private unnamed_addr constant [100 x i8] c"generated/home/dtcxzyw/WorkSpace/Projects/compilers/llvm-opt-benchmark/bench/hdf5/hdf5/src/H5Lint.c\00", align 1
@H5E_LINK_g = external global i64, align 8
@H5E_CANTGET_g = external global i64, align 8
@__func__.H5L__get_name_by_idx = private unnamed_addr constant [21 x i8] c"H5L__get_name_by_idx\00", align 1
@.str.23 = private unnamed_addr constant [15 x i8] c"can't get name\00", align 1

; Function Attrs: nounwind uwtable
define i32 @H5L__get_name_by_idx(ptr noundef %0, ptr noundef %1, i32 noundef %2, i32 noundef %3, i64 noundef %4, ptr noundef %5, i64 noundef %6, ptr noundef %7) #0 {
  %9 = alloca ptr, align 8
  %10 = alloca ptr, align 8
  %11 = alloca i32, align 4
  %12 = alloca i32, align 4
  %13 = alloca i64, align 8
  %14 = alloca ptr, align 8
  %15 = alloca i64, align 8
  %16 = alloca ptr, align 8
  %17 = alloca %struct.H5L_trav_gnbi_t, align 8
  %18 = alloca i32, align 4
  %19 = alloca i8, align 1
  store ptr %0, ptr %9, align 8
  store ptr %1, ptr %10, align 8
  store i32 %2, ptr %11, align 4
  store i32 %3, ptr %12, align 4
  store i64 %4, ptr %13, align 8
  store ptr %5, ptr %14, align 8
  store i64 %6, ptr %15, align 8
  store ptr %7, ptr %16, align 8
  store i32 0, ptr %18, align 4
  store i8 0, ptr %19, align 1
  %20 = load i32, ptr %11, align 4
  %21 = getelementptr inbounds %struct.H5L_trav_gnbi_t, ptr %17, i32 0, i32 0
  store i32 %20, ptr %21, align 8
  %22 = load i32, ptr %12, align 4
  %23 = getelementptr inbounds %struct.H5L_trav_gnbi_t, ptr %17, i32 0, i32 1
  store i32 %22, ptr %23, align 4
  %24 = load i64, ptr %13, align 8
  %25 = getelementptr inbounds %struct.H5L_trav_gnbi_t, ptr %17, i32 0, i32 2
  store i64 %24, ptr %25, align 8
  %26 = load ptr, ptr %14, align 8
  %27 = getelementptr inbounds %struct.H5L_trav_gnbi_t, ptr %17, i32 0, i32 4
  store ptr %26, ptr %27, align 8
  %28 = load i64, ptr %15, align 8
  %29 = getelementptr inbounds %struct.H5L_trav_gnbi_t, ptr %17, i32 0, i32 3
  store i64 %28, ptr %29, align 8
  %30 = getelementptr inbounds %struct.H5L_trav_gnbi_t, ptr %17, i32 0, i32 5
  store i64 0, ptr %30, align 8
  %31 = load ptr, ptr %9, align 8
  %32 = load ptr, ptr %10, align 8
  %33 = call i32 @H5G_traverse(ptr noundef %31, ptr noundef %32, i32 noundef 5, ptr noundef @H5L__get_name_by_idx_cb, ptr noundef %17)
  %34 = icmp slt i32 %33, 0
  br i1 %34, label %35, label %50

35:                                               ; preds = %8
  br label %36

36:                                               ; preds = %35
  br label %37

37:                                               ; preds = %36
  br label %38

38:                                               ; preds = %37
  %39 = load i64, ptr @H5E_LINK_g, align 8
  %40 = load i64, ptr @H5E_CANTGET_g, align 8
  %41 = call i32 (ptr, ptr, i32, i64, i64, ptr, ...) @H5E_printf_stack(ptr noundef @.str, ptr noundef @__func__.H5L__get_name_by_idx, i32 noundef 1979, i64 noundef %39, i64 noundef %40, ptr noundef @.str.23)
  br label %42

42:                                               ; preds = %38
  store i8 1, ptr %19, align 1
  %43 = load i8, ptr %19, align 1
  %44 = trunc i8 %43 to i1
  %45 = zext i1 %44 to i8
  store i8 %45, ptr %19, align 1
  br label %46

46:                                               ; preds = %42
  br label %47

47:                                               ; preds = %46
  store i32 -1, ptr %18, align 4
  br label %54

48:                                               ; No predecessors!
  br label %49

49:                                               ; preds = %48
  br label %50

50:                                               ; preds = %49, %8
  %51 = getelementptr inbounds %struct.H5L_trav_gnbi_t, ptr %17, i32 0, i32 5
  %52 = load i64, ptr %51, align 8
  %53 = load ptr, ptr %16, align 8
  store i64 %52, ptr %53, align 8
  br label %54

54:                                               ; preds = %50, %47
  %55 = load i32, ptr %18, align 4
  ret i32 %55
}