; Function Attrs: nounwind uwtable
define range(i32 -1, 1) i32 @H5L__get_name_by_idx(ptr noundef %0, ptr noundef %1, i32 noundef %2, i32 noundef %3, i64 noundef %4, ptr noundef %5, i64 noundef %6, ptr nocapture noundef writeonly %7) local_unnamed_addr #0 {
  %9 = alloca %struct.H5L_trav_gnbi_t, align 8
  store i32 %2, ptr %9, align 8
  %10 = getelementptr inbounds i8, ptr %9, i64 4
  store i32 %3, ptr %10, align 4
  %11 = getelementptr inbounds i8, ptr %9, i64 8
  store i64 %4, ptr %11, align 8
  %12 = getelementptr inbounds i8, ptr %9, i64 24
  store ptr %5, ptr %12, align 8
  %13 = getelementptr inbounds i8, ptr %9, i64 16
  store i64 %6, ptr %13, align 8
  %14 = getelementptr inbounds i8, ptr %9, i64 32
  store i64 0, ptr %14, align 8
  %15 = call i32 @H5G_traverse(ptr noundef %0, ptr noundef %1, i32 noundef 5, ptr noundef nonnull @H5L__get_name_by_idx_cb, ptr noundef nonnull %9) #10
  %16 = icmp slt i32 %15, 0
  br i1 %16, label %17, label %21

17:                                               ; preds = %8
  %18 = load i64, ptr @H5E_LINK_g, align 8
  %19 = load i64, ptr @H5E_CANTGET_g, align 8
  %20 = call i32 (ptr, ptr, i32, i64, i64, ptr, ...) @H5E_printf_stack(ptr noundef nonnull @.str, ptr noundef nonnull @__func__.H5L__get_name_by_idx, i32 noundef 1979, i64 noundef %18, i64 noundef %19, ptr noundef nonnull @.str.23) #10
  br label %23

21:                                               ; preds = %8
  %22 = load i64, ptr %14, align 8
  store i64 %22, ptr %7, align 8
  br label %23

23:                                               ; preds = %21, %17
  %.0 = phi i32 [ -1, %17 ], [ 0, %21 ]
  ret i32 %.0
}